target datalayout = "e-m:e-p270:32:32-p271:32:32-p272:64:64-i64:64-i128:128-f80:128-n8:16:32:64-S128"
target triple = "x86_64-pc-linux-gnu"

%struct.lstopo_output = type { ptr, i32, i32, i32, ptr, i32, i32, i32, i32, i32, i32, i32, i32, ptr, ptr, i32, i32, i64, i64, i64, i32, [3 x [128 x i8]], i32, i32, ptr, i32, i32, i32, i32, i32, i32, %struct.hwloc_calc_level, i32, i32, i32, i64, [256 x i8], i32, i32, i32, i32, i32, float, [20 x i32], i32, i32, i32, [20 x i32], i32, [20 x i32], i32, [20 x i32], i32, i32, i32, i32, ptr, ptr, i32, [20 x i32], [20 x i32], [20 x i32], ptr, ptr, i64, ptr, i32, i32, i32 }
%struct.hwloc_calc_level = type { i32, i32, %union.hwloc_obj_attr_u, [32 x i8], i32, i32, i32, i32 }
%union.hwloc_obj_attr_u = type { %struct.hwloc_numanode_attr_s, [24 x i8] }
%struct.hwloc_numanode_attr_s = type { i64, i32, ptr }
%struct.hwloc_obj = type { i32, ptr, i32, ptr, i64, ptr, i32, i32, ptr, ptr, ptr, i32, ptr, ptr, i32, ptr, ptr, ptr, i32, i32, ptr, i32, ptr, i32, ptr, ptr, ptr, ptr, ptr, %struct.hwloc_infos_s, ptr, i64 }
%struct.hwloc_infos_s = type { ptr, i32, i32 }
%struct.lstopo_obj_userdata = type { %struct.hwloc_utils_userdata, i32, i32, %struct.lstopo_style, i32, i32, i32, i32, %struct.lstopo_children_position, %struct.lstopo_children_position, %struct.lstopo_children_position, %struct.lstopo_children_position, i32, i32, i32, [4 x %struct.lstopo_text_line], i32, i32 }
%struct.hwloc_utils_userdata = type { ptr, i64, ptr, ptr }
%struct.lstopo_style = type { ptr, ptr, ptr }
%struct.lstopo_children_position = type { i32, i32, i32, i32, i32, i32, ptr }
%struct.lstopo_text_line = type { [128 x i8], i32, i32 }

; Function Attrs: nounwind uwtable
define internal ptr @next_child(ptr noundef %0, ptr noundef %1, i32 noundef %2, ptr noundef %3, ptr noundef %4) #0 {
  %6 = alloca ptr, align 8
  %7 = alloca ptr, align 8
  %8 = alloca ptr, align 8
  %9 = alloca i32, align 4
  %10 = alloca ptr, align 8
  %11 = alloca ptr, align 8
  %12 = alloca i32, align 4
  %13 = alloca ptr, align 8
  %14 = alloca i32, align 4
  %15 = alloca ptr, align 8
  store ptr %0, ptr %7, align 8, !tbaa !4
  store ptr %1, ptr %8, align 8, !tbaa !42
  store i32 %2, ptr %9, align 4, !tbaa !18
  store ptr %3, ptr %10, align 8, !tbaa !42
  store ptr %4, ptr %11, align 8, !tbaa !197
  call void @llvm.lifetime.start.p0(i64 4, ptr %12) #12
  call void @llvm.lifetime.start.p0(i64 8, ptr %13) #12
  %16 = load ptr, ptr %10, align 8, !tbaa !42
  %17 = icmp ne ptr %16, null
  br i1 %17, label %18, label %24

18:                                               ; preds = %5
  %19 = load ptr, ptr %10, align 8, !tbaa !42
  %20 = getelementptr inbounds nuw %struct.hwloc_obj, ptr %19, i32 0, i32 12
  %21 = load ptr, ptr %20, align 8, !tbaa !65
  store ptr %21, ptr %13, align 8, !tbaa !42
  %22 = load ptr, ptr %11, align 8, !tbaa !197
  %23 = load i32, ptr %22, align 4, !tbaa !18
  store i32 %23, ptr %12, align 4, !tbaa !18
  br label %25

24:                                               ; preds = %5
  store ptr null, ptr %13, align 8, !tbaa !42
  store i32 -1, ptr %12, align 4, !tbaa !18
  br label %25

25:                                               ; preds = %24, %18
  br label %26

26:                                               ; preds = %167, %140, %126, %111, %25
  %27 = load ptr, ptr %13, align 8, !tbaa !42
  %28 = icmp ne ptr %27, null
  br i1 %28, label %40, label %29

29:                                               ; preds = %26
  %30 = load i32, ptr %12, align 4, !tbaa !18
  %31 = icmp sle i32 %30, -1
  br i1 %31, label %32, label %40

32:                                               ; preds = %29
  %33 = load i32, ptr %9, align 4, !tbaa !18
  %34 = and i32 %33, 2
  %35 = icmp ne i32 %34, 0
  br i1 %35, label %36, label %40

36:                                               ; preds = %32
  %37 = load ptr, ptr %8, align 8, !tbaa !42
  %38 = getelementptr inbounds nuw %struct.hwloc_obj, ptr %37, i32 0, i32 20
  %39 = load ptr, ptr %38, align 8, !tbaa !67
  store ptr %39, ptr %13, align 8, !tbaa !42
  store i32 0, ptr %12, align 4, !tbaa !18
  br label %40

40:                                               ; preds = %36, %32, %29, %26
  %41 = load ptr, ptr %13, align 8, !tbaa !42
  %42 = icmp ne ptr %41, null
  br i1 %42, label %54, label %43

43:                                               ; preds = %40
  %44 = load i32, ptr %12, align 4, !tbaa !18
  %45 = icmp sle i32 %44, 0
  br i1 %45, label %46, label %54

46:                                               ; preds = %43
  %47 = load i32, ptr %9, align 4, !tbaa !18
  %48 = and i32 %47, 1
  %49 = icmp ne i32 %48, 0
  br i1 %49, label %50, label %54

50:                                               ; preds = %46
  %51 = load ptr, ptr %8, align 8, !tbaa !42
  %52 = getelementptr inbounds nuw %struct.hwloc_obj, ptr %51, i32 0, i32 16
  %53 = load ptr, ptr %52, align 8, !tbaa !64
  store ptr %53, ptr %13, align 8, !tbaa !42
  store i32 1, ptr %12, align 4, !tbaa !18
  br label %54

54:                                               ; preds = %50, %46, %43, %40
  %55 = load ptr, ptr %13, align 8, !tbaa !42
  %56 = icmp ne ptr %55, null
  br i1 %56, label %68, label %57

57:                                               ; preds = %54
  %58 = load i32, ptr %12, align 4, !tbaa !18
  %59 = icmp sle i32 %58, 1
  br i1 %59, label %60, label %68

60:                                               ; preds = %57
  %61 = load i32, ptr %9, align 4, !tbaa !18
  %62 = and i32 %61, 4
  %63 = icmp ne i32 %62, 0
  br i1 %63, label %64, label %68

64:                                               ; preds = %60
  %65 = load ptr, ptr %8, align 8, !tbaa !42
  %66 = getelementptr inbounds nuw %struct.hwloc_obj, ptr %65, i32 0, i32 22
  %67 = load ptr, ptr %66, align 8, !tbaa !69
  store ptr %67, ptr %13, align 8, !tbaa !42
  store i32 2, ptr %12, align 4, !tbaa !18
  br label %68

68:                                               ; preds = %64, %60, %57, %54
  %69 = load ptr, ptr %13, align 8, !tbaa !42
  %70 = icmp ne ptr %69, null
  br i1 %70, label %82, label %71

71:                                               ; preds = %68
  %72 = load i32, ptr %12, align 4, !tbaa !18
  %73 = icmp sle i32 %72, 2
  br i1 %73, label %74, label %82

74:                                               ; preds = %71
  %75 = load i32, ptr %9, align 4, !tbaa !18
  %76 = and i32 %75, 8
  %77 = icmp ne i32 %76, 0
  br i1 %77, label %78, label %82

78:                                               ; preds = %74
  %79 = load ptr, ptr %8, align 8, !tbaa !42
  %80 = getelementptr inbounds nuw %struct.hwloc_obj, ptr %79, i32 0, i32 24
  %81 = load ptr, ptr %80, align 8, !tbaa !71
  store ptr %81, ptr %13, align 8, !tbaa !42
  store i32 3, ptr %12, align 4, !tbaa !18
  br label %82

82:                                               ; preds = %78, %74, %71, %68
  %83 = load ptr, ptr %13, align 8, !tbaa !42
  %84 = icmp ne ptr %83, null
  br i1 %84, label %86, label %85

85:                                               ; preds = %82
  store ptr null, ptr %6, align 8
  store i32 1, ptr %14, align 4
  br label %174

86:                                               ; preds = %82
  %87 = load ptr, ptr %7, align 8, !tbaa !4
  %88 = getelementptr inbounds nuw %struct.lstopo_output, ptr %87, i32 0, i32 58
  %89 = load i32, ptr %88, align 8, !tbaa !145
  %90 = icmp ne i32 %89, 0
  br i1 %90, label %91, label %116

91:                                               ; preds = %86
  %92 = load ptr, ptr %8, align 8, !tbaa !42
  %93 = getelementptr inbounds nuw %struct.hwloc_obj, ptr %92, i32 0, i32 14
  %94 = load i32, ptr %93, align 8, !tbaa !147
  %95 = load ptr, ptr %7, align 8, !tbaa !4
  %96 = getelementptr inbounds nuw %struct.lstopo_output, ptr %95, i32 0, i32 59
  %97 = load ptr, ptr %13, align 8, !tbaa !42
  %98 = getelementptr inbounds nuw %struct.hwloc_obj, ptr %97, i32 0, i32 0
  %99 = load i32, ptr %98, align 8, !tbaa !96
  %100 = zext i32 %99 to i64
  %101 = getelementptr inbounds nuw [20 x i32], ptr %96, i64 0, i64 %100
  %102 = load i32, ptr %101, align 4, !tbaa !18
  %103 = icmp ugt i32 %94, %102
  br i1 %103, label %104, label %116

104:                                              ; preds = %91
  %105 = load ptr, ptr %13, align 8, !tbaa !42
  %106 = getelementptr inbounds nuw %struct.hwloc_obj, ptr %105, i32 0, i32 30
  %107 = load ptr, ptr %106, align 8, !tbaa !44
  %108 = getelementptr inbounds nuw %struct.lstopo_obj_userdata, ptr %107, i32 0, i32 2
  %109 = load i32, ptr %108, align 4, !tbaa !146
  %110 = icmp slt i32 %109, 0
  br i1 %110, label %111, label %115

111:                                              ; preds = %104
  %112 = load ptr, ptr %13, align 8, !tbaa !42
  %113 = getelementptr inbounds nuw %struct.hwloc_obj, ptr %112, i32 0, i32 12
  %114 = load ptr, ptr %113, align 8, !tbaa !65
  store ptr %114, ptr %13, align 8, !tbaa !42
  br label %26

115:                                              ; preds = %104
  br label %116

116:                                              ; preds = %115, %91, %86
  %117 = load ptr, ptr %13, align 8, !tbaa !42
  %118 = getelementptr inbounds nuw %struct.hwloc_obj, ptr %117, i32 0, i32 0
  %119 = load i32, ptr %118, align 8, !tbaa !96
  %120 = icmp eq i32 %119, 4
  br i1 %120, label %121, label %130

121:                                              ; preds = %116
  %122 = load ptr, ptr %7, align 8, !tbaa !4
  %123 = getelementptr inbounds nuw %struct.lstopo_output, ptr %122, i32 0, i32 8
  %124 = load i32, ptr %123, align 4, !tbaa !199
  %125 = icmp ne i32 %124, 0
  br i1 %125, label %126, label %130

126:                                              ; preds = %121
  %127 = load ptr, ptr %13, align 8, !tbaa !42
  %128 = getelementptr inbounds nuw %struct.hwloc_obj, ptr %127, i32 0, i32 12
  %129 = load ptr, ptr %128, align 8, !tbaa !65
  store ptr %129, ptr %13, align 8, !tbaa !42
  br label %26

130:                                              ; preds = %121, %116
  %131 = load ptr, ptr %13, align 8, !tbaa !42
  %132 = getelementptr inbounds nuw %struct.hwloc_obj, ptr %131, i32 0, i32 0
  %133 = load i32, ptr %132, align 8, !tbaa !96
  %134 = icmp eq i32 %133, 14
  br i1 %134, label %135, label %144

135:                                              ; preds = %130
  %136 = load ptr, ptr %7, align 8, !tbaa !4
  %137 = getelementptr inbounds nuw %struct.lstopo_output, ptr %136, i32 0, i32 9
  %138 = load i32, ptr %137, align 8, !tbaa !200
  %139 = icmp ne i32 %138, 0
  br i1 %139, label %140, label %144

140:                                              ; preds = %135
  %141 = load ptr, ptr %13, align 8, !tbaa !42
  %142 = getelementptr inbounds nuw %struct.hwloc_obj, ptr %141, i32 0, i32 12
  %143 = load ptr, ptr %142, align 8, !tbaa !65
  store ptr %143, ptr %13, align 8, !tbaa !42
  br label %26

144:                                              ; preds = %135, %130
  %145 = load ptr, ptr %7, align 8, !tbaa !4
  %146 = getelementptr inbounds nuw %struct.lstopo_output, ptr %145, i32 0, i32 10
  %147 = load i32, ptr %146, align 4, !tbaa !128
  %148 = icmp ne i32 %147, 0
  br i1 %148, label %149, label %170

149:                                              ; preds = %144
  %150 = load ptr, ptr %13, align 8, !tbaa !42
  %151 = getelementptr inbounds nuw %struct.hwloc_obj, ptr %150, i32 0, i32 0
  %152 = load i32, ptr %151, align 8, !tbaa !96
  %153 = icmp eq i32 %152, 17
  br i1 %153, label %154, label %170

154:                                              ; preds = %149
  call void @llvm.lifetime.start.p0(i64 8, ptr %15) #12
  %155 = load ptr, ptr %13, align 8, !tbaa !42
  %156 = getelementptr inbounds nuw %struct.hwloc_obj, ptr %155, i32 0, i32 30
  %157 = load ptr, ptr %156, align 8, !tbaa !44
  store ptr %157, ptr %15, align 8, !tbaa !50
  %158 = load ptr, ptr %15, align 8, !tbaa !50
  %159 = getelementptr inbounds nuw %struct.lstopo_obj_userdata, ptr %158, i32 0, i32 1
  %160 = load i32, ptr %159, align 8, !tbaa !126
  %161 = icmp eq i32 %160, -1
  br i1 %161, label %162, label %166

162:                                              ; preds = %154
  %163 = load ptr, ptr %13, align 8, !tbaa !42
  %164 = getelementptr inbounds nuw %struct.hwloc_obj, ptr %163, i32 0, i32 12
  %165 = load ptr, ptr %164, align 8, !tbaa !65
  store ptr %165, ptr %13, align 8, !tbaa !42
  store i32 2, ptr %14, align 4
  br label %167

166:                                              ; preds = %154
  store i32 0, ptr %14, align 4
  br label %167

167:                                              ; preds = %166, %162
  call void @llvm.lifetime.end.p0(i64 8, ptr %15) #12
  %168 = load i32, ptr %14, align 4
  switch i32 %168, label %176 [
    i32 0, label %169
    i32 2, label %26
  ]

169:                                              ; preds = %167
  br label %170

170:                                              ; preds = %169, %149, %144
  %171 = load i32, ptr %12, align 4, !tbaa !18
  %172 = load ptr, ptr %11, align 8, !tbaa !197
  store i32 %171, ptr %172, align 4, !tbaa !18
  %173 = load ptr, ptr %13, align 8, !tbaa !42
  store ptr %173, ptr %6, align 8
  store i32 1, ptr %14, align 4
  br label %174

174:                                              ; preds = %170, %85
  call void @llvm.lifetime.end.p0(i64 8, ptr %13) #12
  call void @llvm.lifetime.end.p0(i64 4, ptr %12) #12
  %175 = load ptr, ptr %6, align 8
  ret ptr %175

176:                                              ; preds = %167
  unreachable
}