; Function Attrs: nofree norecurse nosync nounwind memory(read, argmem: readwrite, inaccessiblemem: none) uwtable
define internal fastcc ptr @next_child(ptr noundef readonly captures(none) %0, ptr noundef readonly captures(none) %1, i32 noundef %2, ptr noundef readonly captures(address_is_null) %3, ptr noundef nonnull captures(none) %4) unnamed_addr #18 {
  %.not = icmp eq ptr %3, null
  br i1 %.not, label %10, label %6

6:                                                ; preds = %5
  %7 = getelementptr inbounds nuw i8, ptr %3, i64 88
  %8 = load ptr, ptr %7, align 8, !tbaa !154
  %9 = load i32, ptr %4, align 4, !tbaa !4
  br label %10

10:                                               ; preds = %5, %6
  %.050 = phi i32 [ %9, %6 ], [ -1, %5 ]
  %.049 = phi ptr [ %8, %6 ], [ null, %5 ]
  %11 = and i32 %2, 2
  %.not57 = icmp eq i32 %11, 0
  %12 = getelementptr inbounds nuw i8, ptr %1, i64 144
  %13 = and i32 %2, 1
  %.not58 = icmp eq i32 %13, 0
  %14 = getelementptr inbounds nuw i8, ptr %1, i64 120
  %15 = and i32 %2, 4
  %.not59 = icmp eq i32 %15, 0
  %16 = getelementptr inbounds nuw i8, ptr %1, i64 160
  %17 = and i32 %2, 8
  %.not60 = icmp eq i32 %17, 0
  %18 = getelementptr inbounds nuw i8, ptr %1, i64 176
  %19 = getelementptr inbounds nuw i8, ptr %0, i64 1328
  %20 = getelementptr inbounds nuw i8, ptr %1, i64 104
  %21 = getelementptr inbounds nuw i8, ptr %0, i64 1332
  %22 = getelementptr inbounds nuw i8, ptr %0, i64 48
  %23 = getelementptr inbounds nuw i8, ptr %0, i64 44
  %24 = getelementptr inbounds nuw i8, ptr %0, i64 52
  br label %25

25:                                               ; preds = %.backedge, %10
  %.151 = phi i32 [ %.050, %10 ], [ %.555, %.backedge ]
  %.1 = phi ptr [ %.049, %10 ], [ %.1.be, %.backedge ]
  %26 = icmp ne ptr %.1, null
  %27 = icmp sgt i32 %.151, -1
  %or.cond.not79 = select i1 %26, i1 true, i1 %27
  %brmerge = or i1 %or.cond.not79, %.not57
  %.1.mux = select i1 %or.cond.not79, ptr %.1, ptr null
  br i1 %brmerge, label %30, label %28

28:                                               ; preds = %25
  %29 = load ptr, ptr %12, align 8, !tbaa !151
  br label %30

30:                                               ; preds = %25, %28
  %.252 = phi i32 [ 0, %28 ], [ %.151, %25 ]
  %.2 = phi ptr [ %29, %28 ], [ %.1.mux, %25 ]
  %31 = icmp ne ptr %.2, null
  %32 = icmp sgt i32 %.252, 0
  %or.cond3.not82 = select i1 %31, i1 true, i1 %32
  %brmerge75 = or i1 %or.cond3.not82, %.not58
  %.2.mux = select i1 %or.cond3.not82, ptr %.2, ptr null
  br i1 %brmerge75, label %35, label %33

33:                                               ; preds = %30
  %34 = load ptr, ptr %14, align 8, !tbaa !150
  br label %35

35:                                               ; preds = %30, %33
  %.353 = phi i32 [ 1, %33 ], [ %.252, %30 ]
  %.3 = phi ptr [ %34, %33 ], [ %.2.mux, %30 ]
  %36 = icmp ne ptr %.3, null
  %37 = icmp sgt i32 %.353, 1
  %or.cond5.not85 = select i1 %36, i1 true, i1 %37
  %brmerge76 = or i1 %or.cond5.not85, %.not59
  %.3.mux = select i1 %or.cond5.not85, ptr %.3, ptr null
  br i1 %brmerge76, label %40, label %38

38:                                               ; preds = %35
  %39 = load ptr, ptr %16, align 8, !tbaa !152
  br label %40

40:                                               ; preds = %35, %38
  %.454 = phi i32 [ 2, %38 ], [ %.353, %35 ]
  %.4 = phi ptr [ %39, %38 ], [ %.3.mux, %35 ]
  %41 = icmp eq ptr %.4, null
  %42 = icmp slt i32 %.454, 3
  %or.cond7 = select i1 %41, i1 %42, i1 false
  br i1 %or.cond7, label %43, label %46

43:                                               ; preds = %40
  br i1 %.not60, label %.thread, label %44

44:                                               ; preds = %43
  %45 = load ptr, ptr %18, align 8, !tbaa !153
  br label %46

46:                                               ; preds = %44, %40
  %.555 = phi i32 [ 3, %44 ], [ %.454, %40 ]
  %.5 = phi ptr [ %45, %44 ], [ %.4, %40 ]
  %.not61 = icmp eq ptr %.5, null
  br i1 %.not61, label %.thread, label %47

47:                                               ; preds = %46
  %48 = load i32, ptr %19, align 8, !tbaa !122
  %.not62 = icmp eq i32 %48, 0
  %.pr.pre = load i32, ptr %.5, align 8, !tbaa !96
  br i1 %.not62, label %thread-pre-split, label %49

49:                                               ; preds = %47
  %50 = load i32, ptr %20, align 8, !tbaa !124
  %51 = zext i32 %.pr.pre to i64
  %52 = getelementptr inbounds nuw [20 x i32], ptr %21, i64 0, i64 %51
  %53 = load i32, ptr %52, align 4, !tbaa !4
  %54 = icmp ugt i32 %50, %53
  br i1 %54, label %55, label %thread-pre-split

55:                                               ; preds = %49
  %56 = getelementptr inbounds nuw i8, ptr %.5, i64 232
  %57 = load ptr, ptr %56, align 8, !tbaa !37
  %58 = getelementptr inbounds nuw i8, ptr %57, i64 36
  %59 = load i32, ptr %58, align 4, !tbaa !123
  %60 = icmp slt i32 %59, 0
  br i1 %60, label %.backedge, label %thread-pre-split

.backedge:                                        ; preds = %67, %63, %61, %55
  %.1.be.in = getelementptr inbounds nuw i8, ptr %.5, i64 88
  %.1.be = load ptr, ptr %.1.be.in, align 8, !tbaa !154
  br label %25

thread-pre-split:                                 ; preds = %55, %47, %49
  switch i32 %.pr.pre, label %.thread69 [
    i32 4, label %61
    i32 14, label %63
  ]

61:                                               ; preds = %thread-pre-split
  %62 = load i32, ptr %23, align 4, !tbaa !155
  %.not63 = icmp eq i32 %62, 0
  br i1 %.not63, label %.thread70, label %.backedge

63:                                               ; preds = %thread-pre-split
  %64 = load i32, ptr %22, align 8, !tbaa !156
  %.not64 = icmp eq i32 %64, 0
  br i1 %.not64, label %.thread70, label %.backedge

.thread69:                                        ; preds = %thread-pre-split
  %65 = load i32, ptr %24, align 4, !tbaa !112
  %.not65 = icmp ne i32 %65, 0
  %66 = icmp eq i32 %.pr.pre, 17
  %or.cond74 = and i1 %66, %.not65
  br i1 %or.cond74, label %67, label %.thread70

67:                                               ; preds = %.thread69
  %68 = getelementptr inbounds nuw i8, ptr %.5, i64 232
  %69 = load ptr, ptr %68, align 8, !tbaa !37
  %70 = getelementptr inbounds nuw i8, ptr %69, i64 32
  %71 = load i32, ptr %70, align 8, !tbaa !109
  %72 = icmp eq i32 %71, -1
  br i1 %72, label %.backedge, label %.thread70

.thread70:                                        ; preds = %63, %61, %67, %.thread69
  store i32 %.555, ptr %4, align 4, !tbaa !4
  br label %.thread

.thread:                                          ; preds = %43, %46, %.thread70
  %.0 = phi ptr [ %.5, %.thread70 ], [ null, %46 ], [ null, %43 ]
  ret ptr %.0
}